---
triple:          'arm64-apple-darwin'
binary-path:     '/Users/o-eunjin/Desktop/dmswls/coding/KAS/KAS-2022203054/WEEK5/01'
relocations:
  - { offsetInCU: 0x6792, offset: 0x6792, size: 0x8, addend: 0x0, symName: __ZNSt3__1rsB8ue170006IcNS_11char_traitsIcEENS_9allocatorIcEEEERNS_13basic_istreamIT_T0_EES9_RNS_12basic_stringIS6_S7_T1_EE, symObjAddr: 0x530, symBinAddr: 0x100001C28, symSize: 0x31C }
  - { offsetInCU: 0x6861, offset: 0x6861, size: 0x8, addend: 0x0, symName: __ZNSt3__112__to_addressB8ue170006IcEEPT_S2_, symObjAddr: 0x1704, symBinAddr: 0x100002DFC, symSize: 0x14 }
  - { offsetInCU: 0x6896, offset: 0x6896, size: 0x8, addend: 0x0, symName: __ZNSt3__1neB8ue170006ERKNS_16__deque_iteratorIcPcRcPS1_lLl4096EEES6_, symObjAddr: 0x1C78, symBinAddr: 0x100003370, symSize: 0x34 }
  - { offsetInCU: 0x68D3, offset: 0x68D3, size: 0x8, addend: 0x0, symName: __ZNSt3__1eqB8ue170006ERKNS_16__deque_iteratorIcPcRcPS1_lLl4096EEES6_, symObjAddr: 0x1E54, symBinAddr: 0x10000354C, symSize: 0x30 }
  - { offsetInCU: 0x6910, offset: 0x6910, size: 0x8, addend: 0x0, symName: __ZNSt3__119__libcpp_deallocateB8ue170006EPvmm, symObjAddr: 0x204C, symBinAddr: 0x100003744, symSize: 0x60 }
  - { offsetInCU: 0x6975, offset: 0x6975, size: 0x8, addend: 0x0, symName: __ZNSt3__124__is_overaligned_for_newB8ue170006Em, symObjAddr: 0x20AC, symBinAddr: 0x1000037A4, symSize: 0x20 }
  - { offsetInCU: 0x69A3, offset: 0x69A3, size: 0x8, addend: 0x0, symName: __ZNSt3__127__do_deallocate_handle_sizeB8ue170006IJSt11align_val_tEEEvPvmDpT_, symObjAddr: 0x20CC, symBinAddr: 0x1000037C4, symSize: 0x30 }
  - { offsetInCU: 0x69F6, offset: 0x69F6, size: 0x8, addend: 0x0, symName: __ZNSt3__127__do_deallocate_handle_sizeB8ue170006IJEEEvPvmDpT_, symObjAddr: 0x20FC, symBinAddr: 0x1000037F4, symSize: 0x28 }
  - { offsetInCU: 0x6A34, offset: 0x6A34, size: 0x8, addend: 0x0, symName: __ZNSt3__124__libcpp_operator_deleteB8ue170006IJPvSt11align_val_tEEEvDpT_, symObjAddr: 0x2124, symBinAddr: 0x10000381C, symSize: 0x2C }
  - { offsetInCU: 0x6A7D, offset: 0x6A7D, size: 0x8, addend: 0x0, symName: __ZNSt3__124__libcpp_operator_deleteB8ue170006IJPvEEEvDpT_, symObjAddr: 0x2150, symBinAddr: 0x100003848, symSize: 0x24 }
  - { offsetInCU: 0x6AB2, offset: 0x6AB2, size: 0x8, addend: 0x0, symName: __ZNSt3__112__to_addressB8ue170006IPcEEPT_S3_, symObjAddr: 0x23D4, symBinAddr: 0x100003ACC, symSize: 0x14 }
  - { offsetInCU: 0x7927, offset: 0x7927, size: 0x8, addend: 0x0, symName: __ZNSt3__19use_facetB8ue170006INS_5ctypeIcEEEERKT_RKNS_6localeE, symObjAddr: 0x2640, symBinAddr: 0x100003D38, symSize: 0x2C }
  - { offsetInCU: 0x7F24, offset: 0x7F24, size: 0x8, addend: 0x0, symName: __ZNSt3__13maxB8ue170006ImEERKT_S3_S3_, symObjAddr: 0x3918, symBinAddr: 0x100005010, symSize: 0x2C }
  - { offsetInCU: 0x83C0, offset: 0x83C0, size: 0x8, addend: 0x0, symName: __ZNSt3__14swapB8ue170006IPPcEENS_9enable_ifIXaasr21is_move_constructibleIT_EE5valuesr18is_move_assignableIS4_EE5valueEvE4typeERS4_S7_, symObjAddr: 0x3F28, symBinAddr: 0x100005620, symSize: 0x3C }
  - { offsetInCU: 0x8411, offset: 0x8411, size: 0x8, addend: 0x0, symName: __ZNSt3__14moveB8ue170006IPPcS2_EET0_T_S4_S3_, symObjAddr: 0x400C, symBinAddr: 0x100005704, symSize: 0x40 }
  - { offsetInCU: 0x8487, offset: 0x8487, size: 0x8, addend: 0x0, symName: __ZNSt3__16__moveB8ue170006INS_17_ClassicAlgPolicyEPPcS3_S3_EENS_4pairIT0_T2_EES5_T1_S6_, symObjAddr: 0x4114, symBinAddr: 0x10000580C, symSize: 0x44 }
  - { offsetInCU: 0x84F3, offset: 0x84F3, size: 0x8, addend: 0x0, symName: __ZNSt3__123__dispatch_copy_or_moveB8ue170006INS_17_ClassicAlgPolicyENS_11__move_loopIS1_EENS_14__move_trivialEPPcS6_S6_EENS_4pairIT2_T4_EES8_T3_S9_, symObjAddr: 0x4158, symBinAddr: 0x100005850, symSize: 0x44 }
  - { offsetInCU: 0x8571, offset: 0x8571, size: 0x8, addend: 0x0, symName: __ZNSt3__121__unwrap_and_dispatchB8ue170006INS_10__overloadINS_11__move_loopINS_17_ClassicAlgPolicyEEENS_14__move_trivialEEEPPcS8_S8_Li0EEENS_4pairIT0_T2_EESA_T1_SB_, symObjAddr: 0x419C, symBinAddr: 0x100005894, symSize: 0xB4 }
  - { offsetInCU: 0x85FF, offset: 0x85FF, size: 0x8, addend: 0x0, symName: __ZNSt3__114__unwrap_rangeB8ue170006IPPcS2_EENS_4pairIT0_S4_EET_S6_, symObjAddr: 0x4250, symBinAddr: 0x100005948, symSize: 0x60 }
  - { offsetInCU: 0x87C3, offset: 0x87C3, size: 0x8, addend: 0x0, symName: __ZNSt3__113__unwrap_iterB8ue170006IPPcNS_18__unwrap_iter_implIS2_Lb1EEELi0EEEDTclsrT0_8__unwrapclsr3stdE7declvalIT_EEEES6_, symObjAddr: 0x42F8, symBinAddr: 0x1000059F0, symSize: 0x24 }
  - { offsetInCU: 0x8807, offset: 0x8807, size: 0x8, addend: 0x0, symName: __ZNSt3__19make_pairB8ue170006IPPcS2_EENS_4pairINS_18__unwrap_ref_decayIT_E4typeENS4_IT0_E4typeEEEOS5_OS8_, symObjAddr: 0x431C, symBinAddr: 0x100005A14, symSize: 0x38 }
  - { offsetInCU: 0x8856, offset: 0x8856, size: 0x8, addend: 0x0, symName: __ZNSt3__114__rewrap_rangeB8ue170006IPPcS2_EET_S3_T0_, symObjAddr: 0x4354, symBinAddr: 0x100005A4C, symSize: 0x2C }
  - { offsetInCU: 0x88A2, offset: 0x88A2, size: 0x8, addend: 0x0, symName: __ZNSt3__113__rewrap_iterB8ue170006IPPcS2_NS_18__unwrap_iter_implIS2_Lb1EEEEET_S5_T0_, symObjAddr: 0x4380, symBinAddr: 0x100005A78, symSize: 0x3C }
  - { offsetInCU: 0x88F7, offset: 0x88F7, size: 0x8, addend: 0x0, symName: __ZNSt3__119__copy_trivial_implB8ue170006IPcS1_EENS_4pairIPT_PT0_EES4_S4_S6_, symObjAddr: 0x43BC, symBinAddr: 0x100005AB4, symSize: 0x80 }
  - { offsetInCU: 0x895F, offset: 0x895F, size: 0x8, addend: 0x0, symName: __ZNSt3__119__constexpr_memmoveB8ue170006IPcS1_Li0EEEPT_S3_PT0_NS_15__element_countE, symObjAddr: 0x443C, symBinAddr: 0x100005B34, symSize: 0x64 }
  - { offsetInCU: 0x89CD, offset: 0x89CD, size: 0x8, addend: 0x0, symName: __ZNSt3__19make_pairB8ue170006IRPPcS2_EENS_4pairINS_18__unwrap_ref_decayIT_E4typeENS5_IT0_E4typeEEEOS6_OS9_, symObjAddr: 0x44A0, symBinAddr: 0x100005B98, symSize: 0x38 }
  - { offsetInCU: 0x8A6F, offset: 0x8A6F, size: 0x8, addend: 0x0, symName: __ZNSt3__18distanceB8ue170006INS_13move_iteratorIPPcEEEENS_15iterator_traitsIT_E15difference_typeES6_S6_, symObjAddr: 0x4708, symBinAddr: 0x100005E00, symSize: 0x3C }
  - { offsetInCU: 0x8AB2, offset: 0x8AB2, size: 0x8, addend: 0x0, symName: __ZNSt3__110__distanceB8ue170006INS_13move_iteratorIPPcEEEENS_15iterator_traitsIT_E15difference_typeES6_S6_NS_26random_access_iterator_tagE, symObjAddr: 0x490C, symBinAddr: 0x100006004, symSize: 0x30 }
  - { offsetInCU: 0x8AFF, offset: 0x8AFF, size: 0x8, addend: 0x0, symName: __ZNSt3__1miB8ue170006IPPcS2_EEDTmicldtfp_4baseEcldtfp0_4baseEERKNS_13move_iteratorIT_EERKNS4_IT0_EE, symObjAddr: 0x493C, symBinAddr: 0x100006034, symSize: 0x48 }
  - { offsetInCU: 0x8B4E, offset: 0x8B4E, size: 0x8, addend: 0x0, symName: __ZNSt3__117__libcpp_allocateB8ue170006Emm, symObjAddr: 0x4A70, symBinAddr: 0x100006168, symSize: 0x60 }
  - { offsetInCU: 0x8BA8, offset: 0x8BA8, size: 0x8, addend: 0x0, symName: __ZNSt3__121__libcpp_operator_newB8ue170006IJmSt11align_val_tEEEPvDpT_, symObjAddr: 0x4AD0, symBinAddr: 0x1000061C8, symSize: 0x2C }
  - { offsetInCU: 0x8BF5, offset: 0x8BF5, size: 0x8, addend: 0x0, symName: __ZNSt3__121__libcpp_operator_newB8ue170006IJmEEEPvDpT_, symObjAddr: 0x4AFC, symBinAddr: 0x1000061F4, symSize: 0x24 }
  - { offsetInCU: 0x8C2E, offset: 0x8C2E, size: 0x8, addend: 0x0, symName: __ZNSt3__113move_backwardB8ue170006IPPcS2_EET0_T_S4_S3_, symObjAddr: 0x4B20, symBinAddr: 0x100006218, symSize: 0x40 }
  - { offsetInCU: 0x8C88, offset: 0x8C88, size: 0x8, addend: 0x0, symName: __ZNSt3__115__move_backwardB8ue170006INS_17_ClassicAlgPolicyEPPcS3_S3_EENS_4pairIT0_T2_EES5_T1_S6_, symObjAddr: 0x4B60, symBinAddr: 0x100006258, symSize: 0x44 }
  - { offsetInCU: 0x8CF4, offset: 0x8CF4, size: 0x8, addend: 0x0, symName: __ZNSt3__123__dispatch_copy_or_moveB8ue170006INS_17_ClassicAlgPolicyENS_20__move_backward_loopIS1_EENS_23__move_backward_trivialEPPcS6_S6_EENS_4pairIT2_T4_EES8_T3_S9_, symObjAddr: 0x4BA4, symBinAddr: 0x10000629C, symSize: 0x44 }
  - { offsetInCU: 0x8D72, offset: 0x8D72, size: 0x8, addend: 0x0, symName: __ZNSt3__121__unwrap_and_dispatchB8ue170006INS_10__overloadINS_20__move_backward_loopINS_17_ClassicAlgPolicyEEENS_23__move_backward_trivialEEEPPcS8_S8_Li0EEENS_4pairIT0_T2_EESA_T1_SB_, symObjAddr: 0x4BE8, symBinAddr: 0x1000062E0, symSize: 0xB4 }
  - { offsetInCU: 0x8E46, offset: 0x8E46, size: 0x8, addend: 0x0, symName: __ZNSt3__128__copy_backward_trivial_implB8ue170006IPcS1_EENS_4pairIPT_PT0_EES4_S4_S6_, symObjAddr: 0x4CE4, symBinAddr: 0x1000063DC, symSize: 0x90 }
  - { offsetInCU: 0x8EAE, offset: 0x8EAE, size: 0x8, addend: 0x0, symName: __ZNSt3__19make_pairB8ue170006IRPPcS3_EENS_4pairINS_18__unwrap_ref_decayIT_E4typeENS5_IT0_E4typeEEEOS6_OS9_, symObjAddr: 0x4D74, symBinAddr: 0x10000646C, symSize: 0x38 }
  - { offsetInCU: 0x8EFD, offset: 0x8EFD, size: 0x8, addend: 0x0, symName: __ZNSt3__13maxB8ue170006ImNS_6__lessIvvEEEERKT_S5_S5_T0_, symObjAddr: 0x4E1C, symBinAddr: 0x100006514, symSize: 0x54 }
  - { offsetInCU: 0x8F9C, offset: 0x8F9C, size: 0x8, addend: 0x0, symName: __ZNSt3__119__allocate_at_leastB8ue170006INS_9allocatorIPcEEEENS_19__allocation_resultINS_16allocator_traitsIT_E7pointerEEERS6_m, symObjAddr: 0x4FB4, symBinAddr: 0x1000066AC, symSize: 0x40 }
  - { offsetInCU: 0x9192, offset: 0x9192, size: 0x8, addend: 0x0, symName: __ZSt28__throw_bad_array_new_lengthB8ue170006v, symObjAddr: 0x4A3C, symBinAddr: 0x100006134, symSize: 0x34 }
  - { offsetInCU: 0xBA0B, offset: 0xBA0B, size: 0x8, addend: 0x0, symName: _main, symObjAddr: 0x0, symBinAddr: 0x1000016F8, symSize: 0x4D8 }
  - { offsetInCU: 0xBB77, offset: 0xBB77, size: 0x8, addend: 0x0, symName: __ZNSt3__112basic_stringIcNS_11char_traitsIcEENS_9allocatorIcEEEC1B8ue170006Ev, symObjAddr: 0x4D8, symBinAddr: 0x100001BD0, symSize: 0x2C }
  - { offsetInCU: 0xBBA1, offset: 0xBBA1, size: 0x8, addend: 0x0, symName: __ZNSt3__15dequeIcNS_9allocatorIcEEEC1B8ue170006Ev, symObjAddr: 0x504, symBinAddr: 0x100001BFC, symSize: 0x2C }
  - { offsetInCU: 0xBBCB, offset: 0xBBCB, size: 0x8, addend: 0x0, symName: __ZNKSt3__112basic_stringIcNS_11char_traitsIcEENS_9allocatorIcEEE4sizeB8ue170006Ev, symObjAddr: 0x84C, symBinAddr: 0x100001F44, symSize: 0x54 }
  - { offsetInCU: 0xBBF1, offset: 0xBBF1, size: 0x8, addend: 0x0, symName: __ZNSt3__15dequeIcNS_9allocatorIcEEE9push_backERKc, symObjAddr: 0x8A0, symBinAddr: 0x100001F98, symSize: 0xAC }
  - { offsetInCU: 0xBC37, offset: 0xBC37, size: 0x8, addend: 0x0, symName: __ZNSt3__112basic_stringIcNS_11char_traitsIcEENS_9allocatorIcEEEixB8ue170006Em, symObjAddr: 0x94C, symBinAddr: 0x100002044, symSize: 0x30 }
  - { offsetInCU: 0xBC6C, offset: 0xBC6C, size: 0x8, addend: 0x0, symName: __ZNKSt3__15dequeIcNS_9allocatorIcEEE4sizeB8ue170006Ev, symObjAddr: 0x97C, symBinAddr: 0x100002074, symSize: 0x28 }
  - { offsetInCU: 0xBC92, offset: 0xBC92, size: 0x8, addend: 0x0, symName: __ZNSt3__15dequeIcNS_9allocatorIcEEE5frontEv, symObjAddr: 0x9A4, symBinAddr: 0x10000209C, symSize: 0x50 }
  - { offsetInCU: 0xBCBA, offset: 0xBCBA, size: 0x8, addend: 0x0, symName: __ZNSt3__15dequeIcNS_9allocatorIcEEE9pop_frontEv, symObjAddr: 0x9F4, symBinAddr: 0x1000020EC, symSize: 0xD4 }
  - { offsetInCU: 0xBD0F, offset: 0xBD0F, size: 0x8, addend: 0x0, symName: __ZNSt3__15dequeIcNS_9allocatorIcEEEixEm, symObjAddr: 0xAC8, symBinAddr: 0x1000021C0, symSize: 0x5C }
  - { offsetInCU: 0xBD55, offset: 0xBD55, size: 0x8, addend: 0x0, symName: __ZNSt3__15dequeIcNS_9allocatorIcEEE10push_frontERKc, symObjAddr: 0xB24, symBinAddr: 0x10000221C, symSize: 0xBC }
  - { offsetInCU: 0xBD9B, offset: 0xBD9B, size: 0x8, addend: 0x0, symName: __ZNSt3__15dequeIcNS_9allocatorIcEEED1B8ue170006Ev, symObjAddr: 0xBE0, symBinAddr: 0x1000022D8, symSize: 0x2C }
  - { offsetInCU: 0xBDC5, offset: 0xBDC5, size: 0x8, addend: 0x0, symName: __ZNSt3__112basic_stringIcNS_11char_traitsIcEENS_9allocatorIcEEEC2B8ue170006Ev, symObjAddr: 0xC0C, symBinAddr: 0x100002304, symSize: 0x48 }
  - { offsetInCU: 0xBDF4, offset: 0xBDF4, size: 0x8, addend: 0x0, symName: __ZNSt3__117__compressed_pairINS_12basic_stringIcNS_11char_traitsIcEENS_9allocatorIcEEE5__repES5_EC1B8ue170006INS_18__default_init_tagESA_EEOT_OT0_, symObjAddr: 0xC54, symBinAddr: 0x10000234C, symSize: 0x3C }
  - { offsetInCU: 0xBE4C, offset: 0xBE4C, size: 0x8, addend: 0x0, symName: __ZNSt3__112basic_stringIcNS_11char_traitsIcEENS_9allocatorIcEEE14__default_initB8ue170006Ev, symObjAddr: 0xC9C, symBinAddr: 0x100002394, symSize: 0x40 }
  - { offsetInCU: 0xBE72, offset: 0xBE72, size: 0x8, addend: 0x0, symName: __ZNSt3__117__compressed_pairINS_12basic_stringIcNS_11char_traitsIcEENS_9allocatorIcEEE5__repES5_EC2B8ue170006INS_18__default_init_tagESA_EEOT_OT0_, symObjAddr: 0xCDC, symBinAddr: 0x1000023D4, symSize: 0x3C }
  - { offsetInCU: 0xBECA, offset: 0xBECA, size: 0x8, addend: 0x0, symName: __ZNSt3__122__compressed_pair_elemINS_12basic_stringIcNS_11char_traitsIcEENS_9allocatorIcEEE5__repELi0ELb0EEC2B8ue170006ENS_18__default_init_tagE, symObjAddr: 0xD18, symBinAddr: 0x100002410, symSize: 0x14 }
  - { offsetInCU: 0xBEFE, offset: 0xBEFE, size: 0x8, addend: 0x0, symName: __ZNSt3__122__compressed_pair_elemINS_9allocatorIcEELi1ELb1EEC2B8ue170006ENS_18__default_init_tagE, symObjAddr: 0xD2C, symBinAddr: 0x100002424, symSize: 0x2C }
  - { offsetInCU: 0xBF32, offset: 0xBF32, size: 0x8, addend: 0x0, symName: __ZNSt3__19allocatorIcEC2B8ue170006Ev, symObjAddr: 0xD58, symBinAddr: 0x100002450, symSize: 0x2C }
  - { offsetInCU: 0xBF5C, offset: 0xBF5C, size: 0x8, addend: 0x0, symName: __ZNSt3__116__non_trivial_ifILb1ENS_9allocatorIcEEEC2B8ue170006Ev, symObjAddr: 0xD84, symBinAddr: 0x10000247C, symSize: 0x14 }
  - { offsetInCU: 0xBF86, offset: 0xBF86, size: 0x8, addend: 0x0, symName: __ZNSt3__117__compressed_pairINS_12basic_stringIcNS_11char_traitsIcEENS_9allocatorIcEEE5__repES5_E5firstB8ue170006Ev, symObjAddr: 0xD98, symBinAddr: 0x100002490, symSize: 0x24 }
  - { offsetInCU: 0xBFAC, offset: 0xBFAC, size: 0x8, addend: 0x0, symName: __ZNSt3__122__compressed_pair_elemINS_12basic_stringIcNS_11char_traitsIcEENS_9allocatorIcEEE5__repELi0ELb0EE5__getB8ue170006Ev, symObjAddr: 0xDBC, symBinAddr: 0x1000024B4, symSize: 0x14 }
  - { offsetInCU: 0xBFD2, offset: 0xBFD2, size: 0x8, addend: 0x0, symName: __ZNSt3__15dequeIcNS_9allocatorIcEEEC2B8ue170006Ev, symObjAddr: 0xDD0, symBinAddr: 0x1000024C8, symSize: 0x5C }
  - { offsetInCU: 0xBFFC, offset: 0xBFFC, size: 0x8, addend: 0x0, symName: __ZNSt3__114__split_bufferIPcNS_9allocatorIS1_EEEC1B8ue170006Ev, symObjAddr: 0xE2C, symBinAddr: 0x100002524, symSize: 0x2C }
  - { offsetInCU: 0xC02B, offset: 0xC02B, size: 0x8, addend: 0x0, symName: __ZNSt3__117__compressed_pairImNS_9allocatorIcEEEC1B8ue170006IiNS_18__default_init_tagEEEOT_OT0_, symObjAddr: 0xE58, symBinAddr: 0x100002550, symSize: 0x3C }
  - { offsetInCU: 0xC083, offset: 0xC083, size: 0x8, addend: 0x0, symName: __ZNKSt3__15dequeIcNS_9allocatorIcEEE14__annotate_newB8ue170006Em, symObjAddr: 0xE94, symBinAddr: 0x10000258C, symSize: 0xC8 }
  - { offsetInCU: 0xC0B8, offset: 0xC0B8, size: 0x8, addend: 0x0, symName: __ZNSt3__114__split_bufferIPcNS_9allocatorIS1_EEEC2B8ue170006Ev, symObjAddr: 0xF5C, symBinAddr: 0x100002654, symSize: 0x50 }
  - { offsetInCU: 0xC0E7, offset: 0xC0E7, size: 0x8, addend: 0x0, symName: __ZNSt3__117__compressed_pairIPPcNS_9allocatorIS1_EEEC1B8ue170006IDnNS_18__default_init_tagEEEOT_OT0_, symObjAddr: 0xFAC, symBinAddr: 0x1000026A4, symSize: 0x3C }
  - { offsetInCU: 0xC13F, offset: 0xC13F, size: 0x8, addend: 0x0, symName: __ZNSt3__117__compressed_pairIPPcNS_9allocatorIS1_EEEC2B8ue170006IDnNS_18__default_init_tagEEEOT_OT0_, symObjAddr: 0xFE8, symBinAddr: 0x1000026E0, symSize: 0x40 }
  - { offsetInCU: 0xC197, offset: 0xC197, size: 0x8, addend: 0x0, symName: __ZNSt3__122__compressed_pair_elemIPPcLi0ELb0EEC2B8ue170006IDnvEEOT_, symObjAddr: 0x1028, symBinAddr: 0x100002720, symSize: 0x1C }
  - { offsetInCU: 0xC1D9, offset: 0xC1D9, size: 0x8, addend: 0x0, symName: __ZNSt3__122__compressed_pair_elemINS_9allocatorIPcEELi1ELb1EEC2B8ue170006ENS_18__default_init_tagE, symObjAddr: 0x1044, symBinAddr: 0x10000273C, symSize: 0x2C }
  - { offsetInCU: 0xC20D, offset: 0xC20D, size: 0x8, addend: 0x0, symName: __ZNSt3__19allocatorIPcEC2B8ue170006Ev, symObjAddr: 0x1070, symBinAddr: 0x100002768, symSize: 0x2C }
  - { offsetInCU: 0xC237, offset: 0xC237, size: 0x8, addend: 0x0, symName: __ZNSt3__116__non_trivial_ifILb1ENS_9allocatorIPcEEEC2B8ue170006Ev, symObjAddr: 0x109C, symBinAddr: 0x100002794, symSize: 0x14 }
  - { offsetInCU: 0xC261, offset: 0xC261, size: 0x8, addend: 0x0, symName: __ZNSt3__117__compressed_pairImNS_9allocatorIcEEEC2B8ue170006IiNS_18__default_init_tagEEEOT_OT0_, symObjAddr: 0x10B0, symBinAddr: 0x1000027A8, symSize: 0x40 }
  - { offsetInCU: 0xC2B9, offset: 0xC2B9, size: 0x8, addend: 0x0, symName: __ZNSt3__122__compressed_pair_elemImLi0ELb0EEC2B8ue170006IivEEOT_, symObjAddr: 0x10F0, symBinAddr: 0x1000027E8, symSize: 0x24 }
  - { offsetInCU: 0xC2FB, offset: 0xC2FB, size: 0x8, addend: 0x0, symName: __ZNKSt3__15dequeIcNS_9allocatorIcEEE18__annotate_from_toB8ue170006EmmNS3_22__asan_annotation_typeENS3_23__asan_annotation_placeE, symObjAddr: 0x1114, symBinAddr: 0x10000280C, symSize: 0x580 }
  - { offsetInCU: 0xC4B7, offset: 0xC4B7, size: 0x8, addend: 0x0, symName: __ZNKSt3__114__split_bufferIPcNS_9allocatorIS1_EEE4sizeB8ue170006Ev, symObjAddr: 0x1694, symBinAddr: 0x100002D8C, symSize: 0x28 }
  - { offsetInCU: 0xC4DD, offset: 0xC4DD, size: 0x8, addend: 0x0, symName: __ZNKSt3__114__split_bufferIPcNS_9allocatorIS1_EEE5beginB8ue170006Ev, symObjAddr: 0x16BC, symBinAddr: 0x100002DB4, symSize: 0x18 }
  - { offsetInCU: 0xC503, offset: 0xC503, size: 0x8, addend: 0x0, symName: __ZNKSt3__15dequeIcNS_9allocatorIcEEE5emptyB8ue170006Ev, symObjAddr: 0x16D4, symBinAddr: 0x100002DCC, symSize: 0x30 }
  - { offsetInCU: 0xC529, offset: 0xC529, size: 0x8, addend: 0x0, symName: __ZNKSt3__15dequeIcNS_9allocatorIcEEE44__annotate_double_ended_contiguous_containerB8ue170006EPKvS5_S5_S5_S5_S5_, symObjAddr: 0x1718, symBinAddr: 0x100002E10, symSize: 0x28 }
  - { offsetInCU: 0xC597, offset: 0xC597, size: 0x8, addend: 0x0, symName: __ZNSt3__15dequeIcNS_9allocatorIcEEED2B8ue170006Ev, symObjAddr: 0x1740, symBinAddr: 0x100002E38, symSize: 0xA4 }
  - { offsetInCU: 0xC5ED, offset: 0xC5ED, size: 0x8, addend: 0x0, symName: __ZNSt3__15dequeIcNS_9allocatorIcEEE5clearEv, symObjAddr: 0x17E4, symBinAddr: 0x100002EDC, symSize: 0x180 }
  - { offsetInCU: 0xC648, offset: 0xC648, size: 0x8, addend: 0x0, symName: __ZNKSt3__15dequeIcNS_9allocatorIcEEE17__annotate_deleteB8ue170006Ev, symObjAddr: 0x1964, symBinAddr: 0x10000305C, symSize: 0xE8 }
  - { offsetInCU: 0xC68B, offset: 0xC68B, size: 0x8, addend: 0x0, symName: __ZNSt3__114__split_bufferIPcNS_9allocatorIS1_EEE5beginB8ue170006Ev, symObjAddr: 0x1A4C, symBinAddr: 0x100003144, symSize: 0x18 }
  - { offsetInCU: 0xC6B1, offset: 0xC6B1, size: 0x8, addend: 0x0, symName: __ZNSt3__114__split_bufferIPcNS_9allocatorIS1_EEE3endB8ue170006Ev, symObjAddr: 0x1A64, symBinAddr: 0x10000315C, symSize: 0x18 }
  - { offsetInCU: 0xC6D7, offset: 0xC6D7, size: 0x8, addend: 0x0, symName: __ZNSt3__116allocator_traitsINS_9allocatorIcEEE10deallocateB8ue170006ERS2_Pcm, symObjAddr: 0x1A7C, symBinAddr: 0x100003174, symSize: 0x34 }
  - { offsetInCU: 0xC719, offset: 0xC719, size: 0x8, addend: 0x0, symName: __ZNSt3__15dequeIcNS_9allocatorIcEEE7__allocB8ue170006Ev, symObjAddr: 0x1AB0, symBinAddr: 0x1000031A8, symSize: 0x28 }
  - { offsetInCU: 0xC73F, offset: 0xC73F, size: 0x8, addend: 0x0, symName: __ZNSt3__114__split_bufferIPcNS_9allocatorIS1_EEED1Ev, symObjAddr: 0x1AD8, symBinAddr: 0x1000031D0, symSize: 0x2C }
  - { offsetInCU: 0xC76B, offset: 0xC76B, size: 0x8, addend: 0x0, symName: __ZNSt3__15dequeIcNS_9allocatorIcEEE5beginB8ue170006Ev, symObjAddr: 0x1B04, symBinAddr: 0x1000031FC, symSize: 0xB8 }
  - { offsetInCU: 0xC7A0, offset: 0xC7A0, size: 0x8, addend: 0x0, symName: __ZNSt3__15dequeIcNS_9allocatorIcEEE3endB8ue170006Ev, symObjAddr: 0x1BBC, symBinAddr: 0x1000032B4, symSize: 0xBC }
  - { offsetInCU: 0xC7E4, offset: 0xC7E4, size: 0x8, addend: 0x0, symName: __ZNSt3__116allocator_traitsINS_9allocatorIcEEE7destroyB8ue170006IcvEEvRS2_PT_, symObjAddr: 0x1CAC, symBinAddr: 0x1000033A4, symSize: 0x2C }
  - { offsetInCU: 0xC821, offset: 0xC821, size: 0x8, addend: 0x0, symName: __ZNKSt3__116__deque_iteratorIcPcRcPS1_lLl4096EEdeB8ue170006Ev, symObjAddr: 0x1CD8, symBinAddr: 0x1000033D0, symSize: 0x18 }
  - { offsetInCU: 0xC847, offset: 0xC847, size: 0x8, addend: 0x0, symName: __ZNSt3__116__deque_iteratorIcPcRcPS1_lLl4096EEppB8ue170006Ev, symObjAddr: 0x1CF0, symBinAddr: 0x1000033E8, symSize: 0x68 }
  - { offsetInCU: 0xC86D, offset: 0xC86D, size: 0x8, addend: 0x0, symName: __ZNSt3__15dequeIcNS_9allocatorIcEEE6__sizeB8ue170006Ev, symObjAddr: 0x1D58, symBinAddr: 0x100003450, symSize: 0x28 }
  - { offsetInCU: 0xC893, offset: 0xC893, size: 0x8, addend: 0x0, symName: __ZNSt3__114__split_bufferIPcNS_9allocatorIS1_EEE5frontB8ue170006Ev, symObjAddr: 0x1D80, symBinAddr: 0x100003478, symSize: 0x18 }
  - { offsetInCU: 0xC8B9, offset: 0xC8B9, size: 0x8, addend: 0x0, symName: __ZNSt3__114__split_bufferIPcNS_9allocatorIS1_EEE9pop_frontB8ue170006Ev, symObjAddr: 0x1D98, symBinAddr: 0x100003490, symSize: 0x2C }
  - { offsetInCU: 0xC8DF, offset: 0xC8DF, size: 0x8, addend: 0x0, symName: __ZNKSt3__114__split_bufferIPcNS_9allocatorIS1_EEE5emptyB8ue170006Ev, symObjAddr: 0x1DC4, symBinAddr: 0x1000034BC, symSize: 0x28 }
  - { offsetInCU: 0xC905, offset: 0xC905, size: 0x8, addend: 0x0, symName: __ZNSt3__116__deque_iteratorIcPcRcPS1_lLl4096EEC1B8ue170006ES3_S1_, symObjAddr: 0x1DEC, symBinAddr: 0x1000034E4, symSize: 0x3C }
  - { offsetInCU: 0xC94D, offset: 0xC94D, size: 0x8, addend: 0x0, symName: __ZNSt3__116__deque_iteratorIcPcRcPS1_lLl4096EEC2B8ue170006ES3_S1_, symObjAddr: 0x1E28, symBinAddr: 0x100003520, symSize: 0x2C }
  - { offsetInCU: 0xC995, offset: 0xC995, size: 0x8, addend: 0x0, symName: __ZNSt3__19allocatorIcE7destroyB8ue170006EPc, symObjAddr: 0x1E84, symBinAddr: 0x10000357C, symSize: 0x14 }
  - { offsetInCU: 0xC9C9, offset: 0xC9C9, size: 0x8, addend: 0x0, symName: __ZNSt3__117__compressed_pairImNS_9allocatorIcEEE5firstB8ue170006Ev, symObjAddr: 0x1E98, symBinAddr: 0x100003590, symSize: 0x24 }
  - { offsetInCU: 0xC9EF, offset: 0xC9EF, size: 0x8, addend: 0x0, symName: __ZNSt3__122__compressed_pair_elemImLi0ELb0EE5__getB8ue170006Ev, symObjAddr: 0x1EBC, symBinAddr: 0x1000035B4, symSize: 0x14 }
  - { offsetInCU: 0xCA15, offset: 0xCA15, size: 0x8, addend: 0x0, symName: __ZNSt3__114__split_bufferIPcNS_9allocatorIS1_EEE19__destruct_at_beginB8ue170006EPS1_, symObjAddr: 0x1ED0, symBinAddr: 0x1000035C8, symSize: 0x2C }
  - { offsetInCU: 0xCA49, offset: 0xCA49, size: 0x8, addend: 0x0, symName: __ZNSt3__114__split_bufferIPcNS_9allocatorIS1_EEE19__destruct_at_beginEPS1_NS_17integral_constantIbLb1EEE, symObjAddr: 0x1EFC, symBinAddr: 0x1000035F4, symSize: 0x20 }
  - { offsetInCU: 0xCA89, offset: 0xCA89, size: 0x8, addend: 0x0, symName: __ZNKSt3__15dequeIcNS_9allocatorIcEEE22__annotate_whole_blockB8ue170006EmNS3_22__asan_annotation_typeE, symObjAddr: 0x1F1C, symBinAddr: 0x100003614, symSize: 0xAC }
  - { offsetInCU: 0xCAFA, offset: 0xCAFA, size: 0x8, addend: 0x0, symName: __ZNKSt3__15dequeIcNS_9allocatorIcEEE23__annotate_poison_blockB8ue170006EPKvS5_, symObjAddr: 0x1FC8, symBinAddr: 0x1000036C0, symSize: 0x44 }
  - { offsetInCU: 0xCB3E, offset: 0xCB3E, size: 0x8, addend: 0x0, symName: __ZNSt3__19allocatorIcE10deallocateB8ue170006EPcm, symObjAddr: 0x200C, symBinAddr: 0x100003704, symSize: 0x40 }
  - { offsetInCU: 0xCB80, offset: 0xCB80, size: 0x8, addend: 0x0, symName: __ZNSt3__117__compressed_pairImNS_9allocatorIcEEE6secondB8ue170006Ev, symObjAddr: 0x2174, symBinAddr: 0x10000386C, symSize: 0x24 }
  - { offsetInCU: 0xCBA6, offset: 0xCBA6, size: 0x8, addend: 0x0, symName: __ZNSt3__122__compressed_pair_elemINS_9allocatorIcEELi1ELb1EE5__getB8ue170006Ev, symObjAddr: 0x2198, symBinAddr: 0x100003890, symSize: 0x14 }
  - { offsetInCU: 0xCBCC, offset: 0xCBCC, size: 0x8, addend: 0x0, symName: __ZNSt3__114__split_bufferIPcNS_9allocatorIS1_EEED2Ev, symObjAddr: 0x21AC, symBinAddr: 0x1000038A4, symSize: 0x8C }
  - { offsetInCU: 0xCBF8, offset: 0xCBF8, size: 0x8, addend: 0x0, symName: __ZNSt3__114__split_bufferIPcNS_9allocatorIS1_EEE5clearB8ue170006Ev, symObjAddr: 0x2238, symBinAddr: 0x100003930, symSize: 0x28 }
  - { offsetInCU: 0xCC1E, offset: 0xCC1E, size: 0x8, addend: 0x0, symName: __ZNSt3__116allocator_traitsINS_9allocatorIPcEEE10deallocateB8ue170006ERS3_PS2_m, symObjAddr: 0x2260, symBinAddr: 0x100003958, symSize: 0x34 }
  - { offsetInCU: 0xCC60, offset: 0xCC60, size: 0x8, addend: 0x0, symName: __ZNSt3__114__split_bufferIPcNS_9allocatorIS1_EEE7__allocB8ue170006Ev, symObjAddr: 0x2294, symBinAddr: 0x10000398C, symSize: 0x28 }
  - { offsetInCU: 0xCC86, offset: 0xCC86, size: 0x8, addend: 0x0, symName: __ZNKSt3__114__split_bufferIPcNS_9allocatorIS1_EEE8capacityB8ue170006Ev, symObjAddr: 0x22BC, symBinAddr: 0x1000039B4, symSize: 0x40 }
  - { offsetInCU: 0xCCAC, offset: 0xCCAC, size: 0x8, addend: 0x0, symName: __ZNSt3__114__split_bufferIPcNS_9allocatorIS1_EEE17__destruct_at_endB8ue170006EPS1_, symObjAddr: 0x22FC, symBinAddr: 0x1000039F4, symSize: 0x2C }
  - { offsetInCU: 0xCCE0, offset: 0xCCE0, size: 0x8, addend: 0x0, symName: __ZNSt3__114__split_bufferIPcNS_9allocatorIS1_EEE17__destruct_at_endB8ue170006EPS1_NS_17integral_constantIbLb0EEE, symObjAddr: 0x2328, symBinAddr: 0x100003A20, symSize: 0x80 }
  - { offsetInCU: 0xCD20, offset: 0xCD20, size: 0x8, addend: 0x0, symName: __ZNSt3__116allocator_traitsINS_9allocatorIPcEEE7destroyB8ue170006IS2_vEEvRS3_PT_, symObjAddr: 0x23A8, symBinAddr: 0x100003AA0, symSize: 0x2C }
  - { offsetInCU: 0xCD5D, offset: 0xCD5D, size: 0x8, addend: 0x0, symName: __ZNSt3__19allocatorIPcE7destroyB8ue170006EPS1_, symObjAddr: 0x23E8, symBinAddr: 0x100003AE0, symSize: 0x14 }
  - { offsetInCU: 0xCD91, offset: 0xCD91, size: 0x8, addend: 0x0, symName: __ZNSt3__19allocatorIPcE10deallocateB8ue170006EPS1_m, symObjAddr: 0x23FC, symBinAddr: 0x100003AF4, symSize: 0x40 }
  - { offsetInCU: 0xCDD3, offset: 0xCDD3, size: 0x8, addend: 0x0, symName: __ZNSt3__117__compressed_pairIPPcNS_9allocatorIS1_EEE6secondB8ue170006Ev, symObjAddr: 0x243C, symBinAddr: 0x100003B34, symSize: 0x24 }
  - { offsetInCU: 0xCDF9, offset: 0xCDF9, size: 0x8, addend: 0x0, symName: __ZNSt3__122__compressed_pair_elemINS_9allocatorIPcEELi1ELb1EE5__getB8ue170006Ev, symObjAddr: 0x2460, symBinAddr: 0x100003B58, symSize: 0x14 }
  - { offsetInCU: 0xCE1F, offset: 0xCE1F, size: 0x8, addend: 0x0, symName: __ZNKSt3__114__split_bufferIPcNS_9allocatorIS1_EEE9__end_capB8ue170006Ev, symObjAddr: 0x2474, symBinAddr: 0x100003B6C, symSize: 0x28 }
  - { offsetInCU: 0xCE45, offset: 0xCE45, size: 0x8, addend: 0x0, symName: __ZNKSt3__117__compressed_pairIPPcNS_9allocatorIS1_EEE5firstB8ue170006Ev, symObjAddr: 0x249C, symBinAddr: 0x100003B94, symSize: 0x24 }
  - { offsetInCU: 0xCE6B, offset: 0xCE6B, size: 0x8, addend: 0x0, symName: __ZNKSt3__122__compressed_pair_elemIPPcLi0ELb0EE5__getB8ue170006Ev, symObjAddr: 0x24C0, symBinAddr: 0x100003BB8, symSize: 0x14 }
  - { offsetInCU: 0xCFAE, offset: 0xCFAE, size: 0x8, addend: 0x0, symName: __ZNKSt3__113basic_istreamIcNS_11char_traitsIcEEE6sentrycvbB8ue170006Ev, symObjAddr: 0x24D4, symBinAddr: 0x100003BCC, symSize: 0x1C }
  - { offsetInCU: 0xCFD4, offset: 0xCFD4, size: 0x8, addend: 0x0, symName: __ZNSt3__112basic_stringIcNS_11char_traitsIcEENS_9allocatorIcEEE5clearB8ue170006Ev, symObjAddr: 0x24F0, symBinAddr: 0x100003BE8, symSize: 0x78 }
  - { offsetInCU: 0xCFFC, offset: 0xCFFC, size: 0x8, addend: 0x0, symName: __ZNKSt3__18ios_base5widthB8ue170006Ev, symObjAddr: 0x2568, symBinAddr: 0x100003C60, symSize: 0x18 }
  - { offsetInCU: 0xD024, offset: 0xD024, size: 0x8, addend: 0x0, symName: __ZNKSt3__112basic_stringIcNS_11char_traitsIcEENS_9allocatorIcEEE8max_sizeB8ue170006Ev, symObjAddr: 0x2580, symBinAddr: 0x100003C78, symSize: 0xAC }
  - { offsetInCU: 0xD076, offset: 0xD076, size: 0x8, addend: 0x0, symName: __ZNSt3__114numeric_limitsIlE3maxB8ue170006Ev, symObjAddr: 0x262C, symBinAddr: 0x100003D24, symSize: 0x14 }
  - { offsetInCU: 0xD08A, offset: 0xD08A, size: 0x8, addend: 0x0, symName: __ZNKSt3__19basic_iosIcNS_11char_traitsIcEEE5rdbufB8ue170006Ev, symObjAddr: 0x266C, symBinAddr: 0x100003D64, symSize: 0x24 }
  - { offsetInCU: 0xD0B2, offset: 0xD0B2, size: 0x8, addend: 0x0, symName: __ZNSt3__115basic_streambufIcNS_11char_traitsIcEEE5sgetcB8ue170006Ev, symObjAddr: 0x2690, symBinAddr: 0x100003D88, symSize: 0x70 }
  - { offsetInCU: 0xD0D8, offset: 0xD0D8, size: 0x8, addend: 0x0, symName: __ZNSt3__111char_traitsIcE11eq_int_typeB8ue170006Eii, symObjAddr: 0x2700, symBinAddr: 0x100003DF8, symSize: 0x28 }
  - { offsetInCU: 0xD10B, offset: 0xD10B, size: 0x8, addend: 0x0, symName: __ZNSt3__111char_traitsIcE3eofB8ue170006Ev, symObjAddr: 0x2728, symBinAddr: 0x100003E20, symSize: 0x8 }
  - { offsetInCU: 0xD11F, offset: 0xD11F, size: 0x8, addend: 0x0, symName: __ZNSt3__111char_traitsIcE12to_char_typeB8ue170006Ei, symObjAddr: 0x2730, symBinAddr: 0x100003E28, symSize: 0x18 }
  - { offsetInCU: 0xD16A, offset: 0xD16A, size: 0x8, addend: 0x0, symName: __ZNKSt3__15ctypeIcE2isB8ue170006Ejc, symObjAddr: 0x2748, symBinAddr: 0x100003E40, symSize: 0x7C }
  - { offsetInCU: 0xD1AE, offset: 0xD1AE, size: 0x8, addend: 0x0, symName: __ZNSt3__115basic_streambufIcNS_11char_traitsIcEEE6sbumpcB8ue170006Ev, symObjAddr: 0x27C4, symBinAddr: 0x100003EBC, symSize: 0x78 }
  - { offsetInCU: 0xD1D4, offset: 0xD1D4, size: 0x8, addend: 0x0, symName: __ZNSt3__18ios_base5widthB8ue170006El, symObjAddr: 0x283C, symBinAddr: 0x100003F34, symSize: 0x2C }
  - { offsetInCU: 0xD21A, offset: 0xD21A, size: 0x8, addend: 0x0, symName: __ZNSt3__18ios_base18__setstate_nothrowB8ue170006Ej, symObjAddr: 0x2868, symBinAddr: 0x100003F60, symSize: 0x64 }
  - { offsetInCU: 0xD24F, offset: 0xD24F, size: 0x8, addend: 0x0, symName: __ZNKSt3__19basic_iosIcNS_11char_traitsIcEEE10exceptionsB8ue170006Ev, symObjAddr: 0x28CC, symBinAddr: 0x100003FC4, symSize: 0x24 }
  - { offsetInCU: 0xD275, offset: 0xD275, size: 0x8, addend: 0x0, symName: __ZNSt3__19basic_iosIcNS_11char_traitsIcEEE8setstateB8ue170006Ej, symObjAddr: 0x28F0, symBinAddr: 0x100003FE8, symSize: 0x2C }
  - { offsetInCU: 0xD2AA, offset: 0xD2AA, size: 0x8, addend: 0x0, symName: __ZNKSt3__112basic_stringIcNS_11char_traitsIcEENS_9allocatorIcEEE9__is_longB8ue170006Ev, symObjAddr: 0x291C, symBinAddr: 0x100004014, symSize: 0x38 }
  - { offsetInCU: 0xD2D0, offset: 0xD2D0, size: 0x8, addend: 0x0, symName: __ZNSt3__111char_traitsIcE6assignB8ue170006ERcRKc, symObjAddr: 0x2954, symBinAddr: 0x10000404C, symSize: 0x24 }
  - { offsetInCU: 0xD301, offset: 0xD301, size: 0x8, addend: 0x0, symName: __ZNSt3__112basic_stringIcNS_11char_traitsIcEENS_9allocatorIcEEE18__get_long_pointerB8ue170006Ev, symObjAddr: 0x2978, symBinAddr: 0x100004070, symSize: 0x28 }
  - { offsetInCU: 0xD327, offset: 0xD327, size: 0x8, addend: 0x0, symName: __ZNSt3__112basic_stringIcNS_11char_traitsIcEENS_9allocatorIcEEE15__set_long_sizeB8ue170006Em, symObjAddr: 0x29A0, symBinAddr: 0x100004098, symSize: 0x38 }
  - { offsetInCU: 0xD35C, offset: 0xD35C, size: 0x8, addend: 0x0, symName: __ZNSt3__112basic_stringIcNS_11char_traitsIcEENS_9allocatorIcEEE19__get_short_pointerB8ue170006Ev, symObjAddr: 0x29D8, symBinAddr: 0x1000040D0, symSize: 0x28 }
  - { offsetInCU: 0xD382, offset: 0xD382, size: 0x8, addend: 0x0, symName: __ZNSt3__112basic_stringIcNS_11char_traitsIcEENS_9allocatorIcEEE16__set_short_sizeB8ue170006Em, symObjAddr: 0x2A00, symBinAddr: 0x1000040F8, symSize: 0x78 }
  - { offsetInCU: 0xD3B7, offset: 0xD3B7, size: 0x8, addend: 0x0, symName: __ZNKSt3__117__compressed_pairINS_12basic_stringIcNS_11char_traitsIcEENS_9allocatorIcEEE5__repES5_E5firstB8ue170006Ev, symObjAddr: 0x2A78, symBinAddr: 0x100004170, symSize: 0x24 }
  - { offsetInCU: 0xD3DD, offset: 0xD3DD, size: 0x8, addend: 0x0, symName: __ZNKSt3__122__compressed_pair_elemINS_12basic_stringIcNS_11char_traitsIcEENS_9allocatorIcEEE5__repELi0ELb0EE5__getB8ue170006Ev, symObjAddr: 0x2A9C, symBinAddr: 0x100004194, symSize: 0x14 }
  - { offsetInCU: 0xD403, offset: 0xD403, size: 0x8, addend: 0x0, symName: __ZNSt3__114pointer_traitsIPcE10pointer_toB8ue170006ERc, symObjAddr: 0x2AB0, symBinAddr: 0x1000041A8, symSize: 0x14 }
  - { offsetInCU: 0xD430, offset: 0xD430, size: 0x8, addend: 0x0, symName: __ZNSt3__116allocator_traitsINS_9allocatorIcEEE8max_sizeB8ue170006IS2_vEEmRKS2_, symObjAddr: 0x2AC4, symBinAddr: 0x1000041BC, symSize: 0x24 }
  - { offsetInCU: 0xD45E, offset: 0xD45E, size: 0x8, addend: 0x0, symName: __ZNKSt3__112basic_stringIcNS_11char_traitsIcEENS_9allocatorIcEEE7__allocB8ue170006Ev, symObjAddr: 0x2AE8, symBinAddr: 0x1000041E0, symSize: 0x24 }
  - { offsetInCU: 0xD484, offset: 0xD484, size: 0x8, addend: 0x0, symName: __ZNSt3__114numeric_limitsImE3maxB8ue170006Ev, symObjAddr: 0x2B0C, symBinAddr: 0x100004204, symSize: 0x14 }
  - { offsetInCU: 0xD498, offset: 0xD498, size: 0x8, addend: 0x0, symName: __ZNKSt3__19allocatorIcE8max_sizeB8ue170006Ev, symObjAddr: 0x2B20, symBinAddr: 0x100004218, symSize: 0x14 }
  - { offsetInCU: 0xD4BE, offset: 0xD4BE, size: 0x8, addend: 0x0, symName: __ZNKSt3__117__compressed_pairINS_12basic_stringIcNS_11char_traitsIcEENS_9allocatorIcEEE5__repES5_E6secondB8ue170006Ev, symObjAddr: 0x2B34, symBinAddr: 0x10000422C, symSize: 0x24 }
  - { offsetInCU: 0xD4E4, offset: 0xD4E4, size: 0x8, addend: 0x0, symName: __ZNKSt3__122__compressed_pair_elemINS_9allocatorIcEELi1ELb1EE5__getB8ue170006Ev, symObjAddr: 0x2B58, symBinAddr: 0x100004250, symSize: 0x14 }
  - { offsetInCU: 0xD50A, offset: 0xD50A, size: 0x8, addend: 0x0, symName: __ZNSt3__123__libcpp_numeric_limitsImLb1EE3maxB8ue170006Ev, symObjAddr: 0x2B6C, symBinAddr: 0x100004264, symSize: 0x8 }
  - { offsetInCU: 0xD51E, offset: 0xD51E, size: 0x8, addend: 0x0, symName: __ZNSt3__123__libcpp_numeric_limitsIlLb1EE3maxB8ue170006Ev, symObjAddr: 0x2B74, symBinAddr: 0x10000426C, symSize: 0x8 }
  - { offsetInCU: 0xD532, offset: 0xD532, size: 0x8, addend: 0x0, symName: __ZNKSt3__18ios_base5rdbufB8ue170006Ev, symObjAddr: 0x2B7C, symBinAddr: 0x100004274, symSize: 0x18 }
  - { offsetInCU: 0xD558, offset: 0xD558, size: 0x8, addend: 0x0, symName: __ZNSt3__111char_traitsIcE11to_int_typeB8ue170006Ec, symObjAddr: 0x2B94, symBinAddr: 0x10000428C, symSize: 0x14 }
  - { offsetInCU: 0xD57B, offset: 0xD57B, size: 0x8, addend: 0x0, symName: __Z7isasciii, symObjAddr: 0x2BA8, symBinAddr: 0x1000042A0, symSize: 0x24 }
  - { offsetInCU: 0xD5A8, offset: 0xD5A8, size: 0x8, addend: 0x0, symName: __ZNKSt3__18ios_base10exceptionsB8ue170006Ev, symObjAddr: 0x2BCC, symBinAddr: 0x1000042C4, symSize: 0x18 }
  - { offsetInCU: 0xD5D0, offset: 0xD5D0, size: 0x8, addend: 0x0, symName: __ZNSt3__18ios_base8setstateB8ue170006Ej, symObjAddr: 0x2BE4, symBinAddr: 0x1000042DC, symSize: 0x34 }
  - { offsetInCU: 0xD607, offset: 0xD607, size: 0x8, addend: 0x0, symName: __ZNKSt3__112basic_stringIcNS_11char_traitsIcEENS_9allocatorIcEEE15__get_long_sizeB8ue170006Ev, symObjAddr: 0x2C18, symBinAddr: 0x100004310, symSize: 0x28 }
  - { offsetInCU: 0xD62D, offset: 0xD62D, size: 0x8, addend: 0x0, symName: __ZNKSt3__112basic_stringIcNS_11char_traitsIcEENS_9allocatorIcEEE16__get_short_sizeB8ue170006Ev, symObjAddr: 0x2C40, symBinAddr: 0x100004338, symSize: 0x34 }
  - { offsetInCU: 0xD653, offset: 0xD653, size: 0x8, addend: 0x0, symName: __ZNSt3__112basic_stringIcNS_11char_traitsIcEENS_9allocatorIcEEE13__get_pointerB8ue170006Ev, symObjAddr: 0x2C74, symBinAddr: 0x10000436C, symSize: 0x54 }
  - { offsetInCU: 0xD679, offset: 0xD679, size: 0x8, addend: 0x0, symName: __ZNKSt3__15dequeIcNS_9allocatorIcEEE12__back_spareB8ue170006Ev, symObjAddr: 0x2CC8, symBinAddr: 0x1000043C0, symSize: 0x54 }
  - { offsetInCU: 0xD69F, offset: 0xD69F, size: 0x8, addend: 0x0, symName: __ZNSt3__15dequeIcNS_9allocatorIcEEE19__add_back_capacityEv, symObjAddr: 0x2D1C, symBinAddr: 0x100004414, symSize: 0x34C }
  - { offsetInCU: 0xD754, offset: 0xD754, size: 0x8, addend: 0x0, symName: __ZNKSt3__15dequeIcNS_9allocatorIcEEE24__annotate_increase_backB8ue170006Em, symObjAddr: 0x3068, symBinAddr: 0x100004760, symSize: 0x7C }
  - { offsetInCU: 0xD789, offset: 0xD789, size: 0x8, addend: 0x0, symName: __ZNSt3__116allocator_traitsINS_9allocatorIcEEE9constructB8ue170006IcJRKcEvEEvRS2_PT_DpOT0_, symObjAddr: 0x30E4, symBinAddr: 0x1000047DC, symSize: 0x34 }
  - { offsetInCU: 0xD7E0, offset: 0xD7E0, size: 0x8, addend: 0x0, symName: __ZNKSt3__15dequeIcNS_9allocatorIcEEE10__capacityB8ue170006Ev, symObjAddr: 0x3118, symBinAddr: 0x100004810, symSize: 0x60 }
  - { offsetInCU: 0xD806, offset: 0xD806, size: 0x8, addend: 0x0, symName: __ZNKSt3__15dequeIcNS_9allocatorIcEEE13__front_spareB8ue170006Ev, symObjAddr: 0x3178, symBinAddr: 0x100004870, symSize: 0x18 }
  - { offsetInCU: 0xD82C, offset: 0xD82C, size: 0x8, addend: 0x0, symName: __ZNSt3__114__split_bufferIPcNS_9allocatorIS1_EEE9push_backB8ue170006ERKS1_, symObjAddr: 0x3190, symBinAddr: 0x100004888, symSize: 0x260 }
  - { offsetInCU: 0xD8A4, offset: 0xD8A4, size: 0x8, addend: 0x0, symName: __ZNKSt3__114__split_bufferIPcNS_9allocatorIS1_EEE12__back_spareB8ue170006Ev, symObjAddr: 0x33F0, symBinAddr: 0x100004AE8, symSize: 0x40 }
  - { offsetInCU: 0xD8CA, offset: 0xD8CA, size: 0x8, addend: 0x0, symName: __ZNSt3__114__split_bufferIPcNS_9allocatorIS1_EEE9push_backEOS1_, symObjAddr: 0x3430, symBinAddr: 0x100004B28, symSize: 0x260 }
  - { offsetInCU: 0xD942, offset: 0xD942, size: 0x8, addend: 0x0, symName: __ZNSt3__116allocator_traitsINS_9allocatorIcEEE8allocateB8ue170006ERS2_m, symObjAddr: 0x3690, symBinAddr: 0x100004D88, symSize: 0x2C }
  - { offsetInCU: 0xD975, offset: 0xD975, size: 0x8, addend: 0x0, symName: __ZNSt3__114__split_bufferIPcNS_9allocatorIS1_EEE10push_frontEOS1_, symObjAddr: 0x36BC, symBinAddr: 0x100004DB4, symSize: 0x25C }
  - { offsetInCU: 0xD9ED, offset: 0xD9ED, size: 0x8, addend: 0x0, symName: __ZNSt3__114__split_bufferIPcRNS_9allocatorIS1_EEEC1EmmS4_, symObjAddr: 0x3944, symBinAddr: 0x10000503C, symSize: 0x44 }
  - { offsetInCU: 0xDA48, offset: 0xDA48, size: 0x8, addend: 0x0, symName: __ZNSt3__122__allocator_destructorINS_9allocatorIcEEEC1B8ue170006ERS2_m, symObjAddr: 0x3988, symBinAddr: 0x100005080, symSize: 0x3C }
  - { offsetInCU: 0xDB0B, offset: 0xDB0B, size: 0x8, addend: 0x0, symName: __ZNSt3__110unique_ptrIPcNS_22__allocator_destructorINS_9allocatorIcEEEEEC1B8ue170006ILb1EvEES1_NS_16__dependent_typeINS_27__unique_ptr_deleter_sfinaeIS5_EEXT_EE20__good_rval_ref_typeE, symObjAddr: 0x39C4, symBinAddr: 0x1000050BC, symSize: 0x3C }
  - { offsetInCU: 0xDB5C, offset: 0xDB5C, size: 0x8, addend: 0x0, symName: __ZNSt3__114__split_bufferIPcRNS_9allocatorIS1_EEE9push_backEOS1_, symObjAddr: 0x3A00, symBinAddr: 0x1000050F8, symSize: 0x260 }
  - { offsetInCU: 0xDBD4, offset: 0xDBD4, size: 0x8, addend: 0x0, symName: __ZNKSt3__110unique_ptrIPcNS_22__allocator_destructorINS_9allocatorIcEEEEE3getB8ue170006Ev, symObjAddr: 0x3C60, symBinAddr: 0x100005358, symSize: 0x28 }
  - { offsetInCU: 0xDBFA, offset: 0xDBFA, size: 0x8, addend: 0x0, symName: __ZNSt3__110unique_ptrIPcNS_22__allocator_destructorINS_9allocatorIcEEEEE7releaseB8ue170006Ev, symObjAddr: 0x3C88, symBinAddr: 0x100005380, symSize: 0x44 }
  - { offsetInCU: 0xDC2F, offset: 0xDC2F, size: 0x8, addend: 0x0, symName: __ZNSt3__114__split_bufferIPcRNS_9allocatorIS1_EEE10push_frontERKS1_, symObjAddr: 0x3CCC, symBinAddr: 0x1000053C4, symSize: 0x25C }
  - { offsetInCU: 0xDCA7, offset: 0xDCA7, size: 0x8, addend: 0x0, symName: __ZNSt3__114__split_bufferIPcNS_9allocatorIS1_EEE9__end_capB8ue170006Ev, symObjAddr: 0x3F64, symBinAddr: 0x10000565C, symSize: 0x28 }
  - { offsetInCU: 0xDCCD, offset: 0xDCCD, size: 0x8, addend: 0x0, symName: __ZNSt3__114__split_bufferIPcRNS_9allocatorIS1_EEE9__end_capB8ue170006Ev, symObjAddr: 0x3F8C, symBinAddr: 0x100005684, symSize: 0x28 }
  - { offsetInCU: 0xDCF3, offset: 0xDCF3, size: 0x8, addend: 0x0, symName: __ZNSt3__110unique_ptrIPcNS_22__allocator_destructorINS_9allocatorIcEEEEED1B8ue170006Ev, symObjAddr: 0x3FB4, symBinAddr: 0x1000056AC, symSize: 0x2C }
  - { offsetInCU: 0xDD1D, offset: 0xDD1D, size: 0x8, addend: 0x0, symName: __ZNSt3__114__split_bufferIPcRNS_9allocatorIS1_EEED1Ev, symObjAddr: 0x3FE0, symBinAddr: 0x1000056D8, symSize: 0x2C }
  - { offsetInCU: 0xDD49, offset: 0xDD49, size: 0x8, addend: 0x0, symName: __ZNSt3__114__split_bufferIPcRNS_9allocatorIS1_EEE18__construct_at_endINS_13move_iteratorIPS1_EEEENS_9enable_ifIXsr31__has_forward_iterator_categoryIT_EE5valueEvE4typeESB_SB_, symObjAddr: 0x404C, symBinAddr: 0x100005744, symSize: 0x60 }
  - { offsetInCU: 0xDD96, offset: 0xDD96, size: 0x8, addend: 0x0, symName: __ZNSt3__113move_iteratorIPPcEC1B8ue170006ES2_, symObjAddr: 0x40AC, symBinAddr: 0x1000057A4, symSize: 0x34 }
  - { offsetInCU: 0xDDCE, offset: 0xDDCE, size: 0x8, addend: 0x0, symName: __ZNSt3__116allocator_traitsINS_9allocatorIPcEEE9constructB8ue170006IS2_JRKS2_EvEEvRS3_PT_DpOT0_, symObjAddr: 0x40E0, symBinAddr: 0x1000057D8, symSize: 0x34 }
  - { offsetInCU: 0xDE48, offset: 0xDE48, size: 0x8, addend: 0x0, symName: __ZNKSt3__114__move_trivialclB8ue170006IPcS2_Li0EEENS_4pairIPT_PT0_EES5_S5_S7_, symObjAddr: 0x42B0, symBinAddr: 0x1000059A8, symSize: 0x48 }
  - { offsetInCU: 0xDEB5, offset: 0xDEB5, size: 0x8, addend: 0x0, symName: __ZNSt3__14pairIPPcS2_EC1B8ue170006IRS2_S2_LPv0EEEOT_OT0_, symObjAddr: 0x44D8, symBinAddr: 0x100005BD0, symSize: 0x3C }
  - { offsetInCU: 0xDF13, offset: 0xDF13, size: 0x8, addend: 0x0, symName: __ZNSt3__14pairIPPcS2_EC2B8ue170006IRS2_S2_LPv0EEEOT_OT0_, symObjAddr: 0x4514, symBinAddr: 0x100005C0C, symSize: 0x34 }
  - { offsetInCU: 0xDF71, offset: 0xDF71, size: 0x8, addend: 0x0, symName: __ZNSt3__118__unwrap_iter_implIPPcLb1EE8__unwrapB8ue170006ES2_, symObjAddr: 0x4548, symBinAddr: 0x100005C40, symSize: 0x24 }
  - { offsetInCU: 0xDF94, offset: 0xDF94, size: 0x8, addend: 0x0, symName: __ZNSt3__14pairIPPcS2_EC1B8ue170006IS2_S2_LPv0EEEOT_OT0_, symObjAddr: 0x456C, symBinAddr: 0x100005C64, symSize: 0x3C }
  - { offsetInCU: 0xDFF2, offset: 0xDFF2, size: 0x8, addend: 0x0, symName: __ZNSt3__14pairIPPcS2_EC2B8ue170006IS2_S2_LPv0EEEOT_OT0_, symObjAddr: 0x45A8, symBinAddr: 0x100005CA0, symSize: 0x34 }
  - { offsetInCU: 0xE050, offset: 0xE050, size: 0x8, addend: 0x0, symName: __ZNSt3__118__unwrap_iter_implIPPcLb1EE8__rewrapB8ue170006ES2_S2_, symObjAddr: 0x45DC, symBinAddr: 0x100005CD4, symSize: 0x50 }
  - { offsetInCU: 0xE081, offset: 0xE081, size: 0x8, addend: 0x0, symName: __ZNSt3__114__split_bufferIPcRNS_9allocatorIS1_EEE28__construct_at_end_with_sizeINS_13move_iteratorIPS1_EEEEvT_m, symObjAddr: 0x462C, symBinAddr: 0x100005D24, symSize: 0xDC }
  - { offsetInCU: 0xE0E7, offset: 0xE0E7, size: 0x8, addend: 0x0, symName: __ZNSt3__114__split_bufferIPcRNS_9allocatorIS1_EEE21_ConstructTransactionC1B8ue170006EPPS1_m, symObjAddr: 0x4744, symBinAddr: 0x100005E3C, symSize: 0x3C }
  - { offsetInCU: 0xE12D, offset: 0xE12D, size: 0x8, addend: 0x0, symName: __ZNSt3__116allocator_traitsINS_9allocatorIPcEEE9constructB8ue170006IS2_JS2_EvEEvRS3_PT_DpOT0_, symObjAddr: 0x4780, symBinAddr: 0x100005E78, symSize: 0x34 }
  - { offsetInCU: 0xE184, offset: 0xE184, size: 0x8, addend: 0x0, symName: __ZNSt3__114__split_bufferIPcRNS_9allocatorIS1_EEE7__allocB8ue170006Ev, symObjAddr: 0x47B4, symBinAddr: 0x100005EAC, symSize: 0x28 }
  - { offsetInCU: 0xE1AA, offset: 0xE1AA, size: 0x8, addend: 0x0, symName: __ZNKSt3__113move_iteratorIPPcEdeB8ue170006Ev, symObjAddr: 0x47DC, symBinAddr: 0x100005ED4, symSize: 0x18 }
  - { offsetInCU: 0xE1D0, offset: 0xE1D0, size: 0x8, addend: 0x0, symName: __ZNSt3__113move_iteratorIPPcEppB8ue170006Ev, symObjAddr: 0x47F4, symBinAddr: 0x100005EEC, symSize: 0x20 }
  - { offsetInCU: 0xE1F6, offset: 0xE1F6, size: 0x8, addend: 0x0, symName: __ZNSt3__114__split_bufferIPcRNS_9allocatorIS1_EEE21_ConstructTransactionD1B8ue170006Ev, symObjAddr: 0x4814, symBinAddr: 0x100005F0C, symSize: 0x2C }
  - { offsetInCU: 0xE220, offset: 0xE220, size: 0x8, addend: 0x0, symName: __ZNSt3__114__split_bufferIPcRNS_9allocatorIS1_EEE21_ConstructTransactionC2B8ue170006EPPS1_m, symObjAddr: 0x4840, symBinAddr: 0x100005F38, symSize: 0x44 }
  - { offsetInCU: 0xE266, offset: 0xE266, size: 0x8, addend: 0x0, symName: __ZNSt3__19allocatorIPcE9constructB8ue170006IS1_JS1_EEEvPT_DpOT0_, symObjAddr: 0x4884, symBinAddr: 0x100005F7C, symSize: 0x28 }
  - { offsetInCU: 0xE2BC, offset: 0xE2BC, size: 0x8, addend: 0x0, symName: __ZNSt3__117__compressed_pairIPPcRNS_9allocatorIS1_EEE6secondB8ue170006Ev, symObjAddr: 0x48AC, symBinAddr: 0x100005FA4, symSize: 0x28 }
  - { offsetInCU: 0xE2E2, offset: 0xE2E2, size: 0x8, addend: 0x0, symName: __ZNSt3__122__compressed_pair_elemIRNS_9allocatorIPcEELi1ELb0EE5__getB8ue170006Ev, symObjAddr: 0x48D4, symBinAddr: 0x100005FCC, symSize: 0x18 }
  - { offsetInCU: 0xE308, offset: 0xE308, size: 0x8, addend: 0x0, symName: __ZNSt3__114__split_bufferIPcRNS_9allocatorIS1_EEE21_ConstructTransactionD2B8ue170006Ev, symObjAddr: 0x48EC, symBinAddr: 0x100005FE4, symSize: 0x20 }
  - { offsetInCU: 0xE332, offset: 0xE332, size: 0x8, addend: 0x0, symName: __ZNKSt3__113move_iteratorIPPcE4baseB8ue170006Ev, symObjAddr: 0x4984, symBinAddr: 0x10000607C, symSize: 0x18 }
  - { offsetInCU: 0xE358, offset: 0xE358, size: 0x8, addend: 0x0, symName: __ZNSt3__113move_iteratorIPPcEC2B8ue170006ES2_, symObjAddr: 0x499C, symBinAddr: 0x100006094, symSize: 0x20 }
  - { offsetInCU: 0xE390, offset: 0xE390, size: 0x8, addend: 0x0, symName: __ZNSt3__19allocatorIPcE9constructB8ue170006IS1_JRKS1_EEEvPT_DpOT0_, symObjAddr: 0x49BC, symBinAddr: 0x1000060B4, symSize: 0x28 }
  - { offsetInCU: 0xE3E6, offset: 0xE3E6, size: 0x8, addend: 0x0, symName: __ZNSt3__19allocatorIcE8allocateB8ue170006Em, symObjAddr: 0x49E4, symBinAddr: 0x1000060DC, symSize: 0x58 }
  - { offsetInCU: 0xE424, offset: 0xE424, size: 0x8, addend: 0x0, symName: __ZNKSt3__123__move_backward_trivialclB8ue170006IPcS2_Li0EEENS_4pairIPT_PT0_EES5_S5_S7_, symObjAddr: 0x4C9C, symBinAddr: 0x100006394, symSize: 0x48 }
  - { offsetInCU: 0xE48C, offset: 0xE48C, size: 0x8, addend: 0x0, symName: __ZNSt3__14pairIPPcS2_EC1B8ue170006IRS2_S5_LPv0EEEOT_OT0_, symObjAddr: 0x4DAC, symBinAddr: 0x1000064A4, symSize: 0x3C }
  - { offsetInCU: 0xE4EA, offset: 0xE4EA, size: 0x8, addend: 0x0, symName: __ZNSt3__14pairIPPcS2_EC2B8ue170006IRS2_S5_LPv0EEEOT_OT0_, symObjAddr: 0x4DE8, symBinAddr: 0x1000064E0, symSize: 0x34 }
  - { offsetInCU: 0xE552, offset: 0xE552, size: 0x8, addend: 0x0, symName: __ZNKSt3__16__lessIvvEclB8ue170006ImmEEbRKT_RKT0_, symObjAddr: 0x4E70, symBinAddr: 0x100006568, symSize: 0x34 }
  - { offsetInCU: 0xE5A6, offset: 0xE5A6, size: 0x8, addend: 0x0, symName: __ZNSt3__114__split_bufferIPcRNS_9allocatorIS1_EEEC2EmmS4_, symObjAddr: 0x4EA4, symBinAddr: 0x10000659C, symSize: 0xD4 }
  - { offsetInCU: 0xE619, offset: 0xE619, size: 0x8, addend: 0x0, symName: __ZNSt3__117__compressed_pairIPPcRNS_9allocatorIS1_EEEC1B8ue170006IDnS5_EEOT_OT0_, symObjAddr: 0x4F78, symBinAddr: 0x100006670, symSize: 0x3C }
  - { offsetInCU: 0xE671, offset: 0xE671, size: 0x8, addend: 0x0, symName: __ZNSt3__117__compressed_pairIPPcRNS_9allocatorIS1_EEEC2B8ue170006IDnS5_EEOT_OT0_, symObjAddr: 0x4FF4, symBinAddr: 0x1000066EC, symSize: 0x48 }
  - { offsetInCU: 0xE6C9, offset: 0xE6C9, size: 0x8, addend: 0x0, symName: __ZNSt3__122__compressed_pair_elemIRNS_9allocatorIPcEELi1ELb0EEC2B8ue170006IS4_vEEOT_, symObjAddr: 0x503C, symBinAddr: 0x100006734, symSize: 0x20 }
  - { offsetInCU: 0xE70B, offset: 0xE70B, size: 0x8, addend: 0x0, symName: __ZNSt3__19allocatorIPcE8allocateB8ue170006Em, symObjAddr: 0x505C, symBinAddr: 0x100006754, symSize: 0x58 }
  - { offsetInCU: 0xE749, offset: 0xE749, size: 0x8, addend: 0x0, symName: __ZNSt3__116allocator_traitsINS_9allocatorIPcEEE8max_sizeB8ue170006IS3_vEEmRKS3_, symObjAddr: 0x50B4, symBinAddr: 0x1000067AC, symSize: 0x24 }
  - { offsetInCU: 0xE777, offset: 0xE777, size: 0x8, addend: 0x0, symName: __ZNKSt3__19allocatorIPcE8max_sizeB8ue170006Ev, symObjAddr: 0x50D8, symBinAddr: 0x1000067D0, symSize: 0x14 }
  - { offsetInCU: 0xE79D, offset: 0xE79D, size: 0x8, addend: 0x0, symName: __ZNSt3__122__allocator_destructorINS_9allocatorIcEEEC2B8ue170006ERS2_m, symObjAddr: 0x50EC, symBinAddr: 0x1000067E4, symSize: 0x2C }
  - { offsetInCU: 0xE7E3, offset: 0xE7E3, size: 0x8, addend: 0x0, symName: __ZNSt3__110unique_ptrIPcNS_22__allocator_destructorINS_9allocatorIcEEEEEC2B8ue170006ILb1EvEES1_NS_16__dependent_typeINS_27__unique_ptr_deleter_sfinaeIS5_EEXT_EE20__good_rval_ref_typeE, symObjAddr: 0x5118, symBinAddr: 0x100006810, symSize: 0x48 }
  - { offsetInCU: 0xE834, offset: 0xE834, size: 0x8, addend: 0x0, symName: __ZNSt3__117__compressed_pairIPcNS_22__allocator_destructorINS_9allocatorIcEEEEEC1B8ue170006IRS1_S5_EEOT_OT0_, symObjAddr: 0x5160, symBinAddr: 0x100006858, symSize: 0x3C }
  - { offsetInCU: 0xE88C, offset: 0xE88C, size: 0x8, addend: 0x0, symName: __ZNSt3__117__compressed_pairIPcNS_22__allocator_destructorINS_9allocatorIcEEEEEC2B8ue170006IRS1_S5_EEOT_OT0_, symObjAddr: 0x519C, symBinAddr: 0x100006894, symSize: 0x48 }
  - { offsetInCU: 0xE8E4, offset: 0xE8E4, size: 0x8, addend: 0x0, symName: __ZNSt3__122__compressed_pair_elemIPcLi0ELb0EEC2B8ue170006IRS1_vEEOT_, symObjAddr: 0x51E4, symBinAddr: 0x1000068DC, symSize: 0x24 }
  - { offsetInCU: 0xE926, offset: 0xE926, size: 0x8, addend: 0x0, symName: __ZNSt3__122__compressed_pair_elemINS_22__allocator_destructorINS_9allocatorIcEEEELi1ELb0EEC2B8ue170006IS4_vEEOT_, symObjAddr: 0x5208, symBinAddr: 0x100006900, symSize: 0x24 }
  - { offsetInCU: 0xE968, offset: 0xE968, size: 0x8, addend: 0x0, symName: __ZNKSt3__117__compressed_pairIPcNS_22__allocator_destructorINS_9allocatorIcEEEEE5firstB8ue170006Ev, symObjAddr: 0x522C, symBinAddr: 0x100006924, symSize: 0x24 }
  - { offsetInCU: 0xE98E, offset: 0xE98E, size: 0x8, addend: 0x0, symName: __ZNKSt3__122__compressed_pair_elemIPcLi0ELb0EE5__getB8ue170006Ev, symObjAddr: 0x5250, symBinAddr: 0x100006948, symSize: 0x14 }
  - { offsetInCU: 0xE9B4, offset: 0xE9B4, size: 0x8, addend: 0x0, symName: __ZNSt3__117__compressed_pairIPcNS_22__allocator_destructorINS_9allocatorIcEEEEE5firstB8ue170006Ev, symObjAddr: 0x5264, symBinAddr: 0x10000695C, symSize: 0x24 }
  - { offsetInCU: 0xE9DA, offset: 0xE9DA, size: 0x8, addend: 0x0, symName: __ZNSt3__122__compressed_pair_elemIPcLi0ELb0EE5__getB8ue170006Ev, symObjAddr: 0x5288, symBinAddr: 0x100006980, symSize: 0x14 }
  - { offsetInCU: 0xEA00, offset: 0xEA00, size: 0x8, addend: 0x0, symName: __ZNSt3__117__compressed_pairIPPcNS_9allocatorIS1_EEE5firstB8ue170006Ev, symObjAddr: 0x529C, symBinAddr: 0x100006994, symSize: 0x24 }
  - { offsetInCU: 0xEA26, offset: 0xEA26, size: 0x8, addend: 0x0, symName: __ZNSt3__122__compressed_pair_elemIPPcLi0ELb0EE5__getB8ue170006Ev, symObjAddr: 0x52C0, symBinAddr: 0x1000069B8, symSize: 0x14 }
  - { offsetInCU: 0xEA4C, offset: 0xEA4C, size: 0x8, addend: 0x0, symName: __ZNSt3__117__compressed_pairIPPcRNS_9allocatorIS1_EEE5firstB8ue170006Ev, symObjAddr: 0x52D4, symBinAddr: 0x1000069CC, symSize: 0x24 }
  - { offsetInCU: 0xEA72, offset: 0xEA72, size: 0x8, addend: 0x0, symName: __ZNSt3__110unique_ptrIPcNS_22__allocator_destructorINS_9allocatorIcEEEEED2B8ue170006Ev, symObjAddr: 0x52F8, symBinAddr: 0x1000069F0, symSize: 0x30 }
  - { offsetInCU: 0xEA9C, offset: 0xEA9C, size: 0x8, addend: 0x0, symName: __ZNSt3__110unique_ptrIPcNS_22__allocator_destructorINS_9allocatorIcEEEEE5resetB8ue170006ES1_, symObjAddr: 0x5328, symBinAddr: 0x100006A20, symSize: 0x78 }
  - { offsetInCU: 0xEAE0, offset: 0xEAE0, size: 0x8, addend: 0x0, symName: __ZNSt3__117__compressed_pairIPcNS_22__allocator_destructorINS_9allocatorIcEEEEE6secondB8ue170006Ev, symObjAddr: 0x53A0, symBinAddr: 0x100006A98, symSize: 0x28 }
  - { offsetInCU: 0xEB06, offset: 0xEB06, size: 0x8, addend: 0x0, symName: __ZNSt3__122__allocator_destructorINS_9allocatorIcEEEclB8ue170006EPc, symObjAddr: 0x53C8, symBinAddr: 0x100006AC0, symSize: 0x34 }
  - { offsetInCU: 0xEB3A, offset: 0xEB3A, size: 0x8, addend: 0x0, symName: __ZNSt3__122__compressed_pair_elemINS_22__allocator_destructorINS_9allocatorIcEEEELi1ELb0EE5__getB8ue170006Ev, symObjAddr: 0x53FC, symBinAddr: 0x100006AF4, symSize: 0x14 }
  - { offsetInCU: 0xEB60, offset: 0xEB60, size: 0x8, addend: 0x0, symName: __ZNSt3__114__split_bufferIPcRNS_9allocatorIS1_EEED2Ev, symObjAddr: 0x5410, symBinAddr: 0x100006B08, symSize: 0x8C }
  - { offsetInCU: 0xEB8C, offset: 0xEB8C, size: 0x8, addend: 0x0, symName: __ZNSt3__114__split_bufferIPcRNS_9allocatorIS1_EEE5clearB8ue170006Ev, symObjAddr: 0x549C, symBinAddr: 0x100006B94, symSize: 0x28 }
  - { offsetInCU: 0xEBB2, offset: 0xEBB2, size: 0x8, addend: 0x0, symName: __ZNKSt3__114__split_bufferIPcRNS_9allocatorIS1_EEE8capacityB8ue170006Ev, symObjAddr: 0x54C4, symBinAddr: 0x100006BBC, symSize: 0x40 }
  - { offsetInCU: 0xEBD8, offset: 0xEBD8, size: 0x8, addend: 0x0, symName: __ZNSt3__114__split_bufferIPcRNS_9allocatorIS1_EEE17__destruct_at_endB8ue170006EPS1_, symObjAddr: 0x5504, symBinAddr: 0x100006BFC, symSize: 0x2C }
  - { offsetInCU: 0xEC0C, offset: 0xEC0C, size: 0x8, addend: 0x0, symName: __ZNSt3__114__split_bufferIPcRNS_9allocatorIS1_EEE17__destruct_at_endB8ue170006EPS1_NS_17integral_constantIbLb0EEE, symObjAddr: 0x5530, symBinAddr: 0x100006C28, symSize: 0x80 }
  - { offsetInCU: 0xEC4C, offset: 0xEC4C, size: 0x8, addend: 0x0, symName: __ZNKSt3__114__split_bufferIPcRNS_9allocatorIS1_EEE9__end_capB8ue170006Ev, symObjAddr: 0x55B0, symBinAddr: 0x100006CA8, symSize: 0x28 }
  - { offsetInCU: 0xEC72, offset: 0xEC72, size: 0x8, addend: 0x0, symName: __ZNKSt3__117__compressed_pairIPPcRNS_9allocatorIS1_EEE5firstB8ue170006Ev, symObjAddr: 0x55D8, symBinAddr: 0x100006CD0, symSize: 0x24 }
  - { offsetInCU: 0xEC98, offset: 0xEC98, size: 0x8, addend: 0x0, symName: __ZNSt3__19allocatorIcE9constructB8ue170006IcJRKcEEEvPT_DpOT0_, symObjAddr: 0x55FC, symBinAddr: 0x100006CF4, symSize: 0x28 }
  - { offsetInCU: 0xECEE, offset: 0xECEE, size: 0x8, addend: 0x0, symName: __ZNKSt3__15dequeIcNS_9allocatorIcEEE6__sizeB8ue170006Ev, symObjAddr: 0x5624, symBinAddr: 0x100006D1C, symSize: 0x28 }
  - { offsetInCU: 0xED14, offset: 0xED14, size: 0x8, addend: 0x0, symName: __ZNKSt3__117__compressed_pairImNS_9allocatorIcEEE5firstB8ue170006Ev, symObjAddr: 0x564C, symBinAddr: 0x100006D44, symSize: 0x24 }
  - { offsetInCU: 0xED3A, offset: 0xED3A, size: 0x8, addend: 0x0, symName: __ZNKSt3__122__compressed_pair_elemImLi0ELb0EE5__getB8ue170006Ev, symObjAddr: 0x5670, symBinAddr: 0x100006D68, symSize: 0x14 }
  - { offsetInCU: 0xED60, offset: 0xED60, size: 0x8, addend: 0x0, symName: __ZNKSt3__15dequeIcNS_9allocatorIcEEE23__annotate_shrink_frontB8ue170006Emm, symObjAddr: 0x5684, symBinAddr: 0x100006D7C, symSize: 0x70 }
  - { offsetInCU: 0xEDA4, offset: 0xEDA4, size: 0x8, addend: 0x0, symName: __ZNSt3__15dequeIcNS_9allocatorIcEEE26__maybe_remove_front_spareB8ue170006Eb, symObjAddr: 0x56F4, symBinAddr: 0x100006DEC, symSize: 0xEC }
  - { offsetInCU: 0xEDD9, offset: 0xEDD9, size: 0x8, addend: 0x0, symName: __ZNKSt3__15dequeIcNS_9allocatorIcEEE20__front_spare_blocksB8ue170006Ev, symObjAddr: 0x57E0, symBinAddr: 0x100006ED8, symSize: 0x2C }
  - { offsetInCU: 0xEDFF, offset: 0xEDFF, size: 0x8, addend: 0x0, symName: __ZNSt3__15dequeIcNS_9allocatorIcEEE20__add_front_capacityEv, symObjAddr: 0x580C, symBinAddr: 0x100006F04, symSize: 0x3A4 }
  - { offsetInCU: 0xEEB4, offset: 0xEEB4, size: 0x8, addend: 0x0, symName: __ZNKSt3__15dequeIcNS_9allocatorIcEEE25__annotate_increase_frontB8ue170006Em, symObjAddr: 0x5BB0, symBinAddr: 0x1000072A8, symSize: 0x40 }
  - { offsetInCU: 0xEEE9, offset: 0xEEE9, size: 0x8, addend: 0x0, symName: __ZNSt3__116__deque_iteratorIcPcRcPS1_lLl4096EEmmB8ue170006Ev, symObjAddr: 0x5BF0, symBinAddr: 0x1000072E8, symSize: 0x68 }
  - { offsetInCU: 0xEF0F, offset: 0xEF0F, size: 0x8, addend: 0x0, symName: __ZNSt3__114__split_bufferIPcNS_9allocatorIS1_EEE4backB8ue170006Ev, symObjAddr: 0x5C58, symBinAddr: 0x100007350, symSize: 0x1C }
  - { offsetInCU: 0xEF35, offset: 0xEF35, size: 0x8, addend: 0x0, symName: __ZNSt3__114__split_bufferIPcNS_9allocatorIS1_EEE8pop_backB8ue170006Ev, symObjAddr: 0x5C74, symBinAddr: 0x10000736C, symSize: 0x2C }
  - { offsetInCU: 0xEF5B, offset: 0xEF5B, size: 0x8, addend: 0x0, symName: __ZNSt3__114__split_bufferIPcNS_9allocatorIS1_EEE10push_frontERKS1_, symObjAddr: 0x5CA0, symBinAddr: 0x100007398, symSize: 0x25C }
  - { offsetInCU: 0xEFD3, offset: 0xEFD3, size: 0x8, addend: 0x0, symName: __ZNKSt3__114__split_bufferIPcNS_9allocatorIS1_EEE13__front_spareB8ue170006Ev, symObjAddr: 0x5EFC, symBinAddr: 0x1000075F4, symSize: 0x28 }
  - { offsetInCU: 0xEFF9, offset: 0xEFF9, size: 0x8, addend: 0x0, symName: __ZNSt3__114__split_bufferIPcRNS_9allocatorIS1_EEE9push_backB8ue170006ERKS1_, symObjAddr: 0x5F24, symBinAddr: 0x10000761C, symSize: 0x260 }
...
